target datalayout = "e-m:e-p270:32:32-p271:32:32-p272:64:64-i64:64-i128:128-f80:128-n8:16:32:64-S128"
target triple = "x86_64-unknown-linux-gnu"

%struct.btTypedObject = type { i32 }
%class.btGeneric6DofSpringConstraint = type { %class.btGeneric6DofConstraint.base, [6 x i8], [6 x float], [6 x float], [6 x float], [4 x i8] }
%class.btGeneric6DofConstraint.base = type <{ %class.btTypedConstraint, %class.btTransform, %class.btTransform, [3 x %class.btJacobianEntry], [3 x %class.btJacobianEntry], %class.btTranslationalLimitMotor, [3 x %class.btRotationalLimitMotor], float, %class.btTransform, %class.btTransform, %class.btVector3, [3 x %class.btVector3], %class.btVector3, float, float, i8, [3 x i8], %class.btVector3, i8, i8, [2 x i8], i32, i8 }>
%class.btTypedConstraint = type { ptr, %struct.btTypedObject, i32, %union.anon.0, float, i8, i8, i32, ptr, ptr, float, float, ptr }
%union.anon.0 = type { ptr }
%class.btJacobianEntry = type { %class.btVector3, %class.btVector3, %class.btVector3, %class.btVector3, %class.btVector3, float }
%class.btTranslationalLimitMotor = type { %class.btVector3, %class.btVector3, %class.btVector3, float, float, float, %class.btVector3, %class.btVector3, %class.btVector3, [3 x i8], %class.btVector3, %class.btVector3, %class.btVector3, %class.btVector3, [3 x i32] }
%class.btRotationalLimitMotor = type { float, float, float, float, float, float, float, float, float, float, float, i8, float, float, i32, float }
%class.btTransform = type { %class.btMatrix3x3, %class.btVector3 }
%class.btMatrix3x3 = type { [3 x %class.btVector3] }
%class.btVector3 = type { [4 x float] }
%class.btGeneric6DofConstraint = type <{ %class.btTypedConstraint, %class.btTransform, %class.btTransform, [3 x %class.btJacobianEntry], [3 x %class.btJacobianEntry], %class.btTranslationalLimitMotor, [3 x %class.btRotationalLimitMotor], float, %class.btTransform, %class.btTransform, %class.btVector3, [3 x %class.btVector3], %class.btVector3, float, float, i8, [3 x i8], %class.btVector3, i8, i8, [2 x i8], i32, i8, [3 x i8] }>
%"struct.btTypedConstraint::btConstraintInfo2" = type { float, float, ptr, ptr, ptr, ptr, i32, ptr, ptr, ptr, ptr, i32, float }

; Function Attrs: mustprogress nounwind uwtable
define linkonce_odr dso_local noundef float @_Z6btFabsf(float noundef %x) #1 comdat {
entry:
  %x.addr = alloca float, align 4
  store float %x, ptr %x.addr, align 4
  %0 = load float, ptr %x.addr, align 4
  %1 = call float @llvm.fabs.f32(float %0)
  ret float %1
}

; Function Attrs: mustprogress nounwind uwtable
define linkonce_odr dso_local noundef ptr @_ZN9btVector3cvPfEv(ptr noundef nonnull align 4 dereferenceable(16) %this) #1 comdat align 2 {
entry:
  %this.addr = alloca ptr, align 8
  store ptr %this, ptr %this.addr, align 8
  %this1 = load ptr, ptr %this.addr, align 8
  %m_floats = getelementptr inbounds %class.btVector3, ptr %this1, i32 0, i32 0
  %arrayidx = getelementptr inbounds [4 x float], ptr %m_floats, i64 0, i64 0
  ret ptr %arrayidx
}

; Function Attrs: mustprogress uwtable
define dso_local void @_ZN29btGeneric6DofSpringConstraint21internalUpdateSpringsEPN17btTypedConstraint17btConstraintInfo2E(ptr noundef nonnull align 8 dereferenceable(1412) %this, ptr noundef %info) #2 align 2 {
entry:
  %this.addr = alloca ptr, align 8
  %info.addr = alloca ptr, align 8
  %i = alloca i32, align 4
  %currPos = alloca float, align 4
  %delta = alloca float, align 4
  %force = alloca float, align 4
  %velFactor = alloca float, align 4
  %currPos28 = alloca float, align 4
  %delta32 = alloca float, align 4
  %force38 = alloca float, align 4
  %velFactor44 = alloca float, align 4
  store ptr %this, ptr %this.addr, align 8
  store ptr %info, ptr %info.addr, align 8
  %this1 = load ptr, ptr %this.addr, align 8
  store i32 0, ptr %i, align 4
  br label %for.cond

for.cond:                                         ; preds = %for.inc, %entry
  %0 = load i32, ptr %i, align 4
  %cmp = icmp slt i32 %0, 3
  br i1 %cmp, label %for.body, label %for.end

for.body:                                         ; preds = %for.cond
  %m_springEnabled = getelementptr inbounds %class.btGeneric6DofSpringConstraint, ptr %this1, i32 0, i32 1
  %1 = load i32, ptr %i, align 4
  %idxprom = sext i32 %1 to i64
  %arrayidx = getelementptr inbounds [6 x i8], ptr %m_springEnabled, i64 0, i64 %idxprom
  %2 = load i8, ptr %arrayidx, align 1
  %tobool = trunc i8 %2 to i1
  br i1 %tobool, label %if.then, label %if.end

if.then:                                          ; preds = %for.body
  %m_calculatedLinearDiff = getelementptr inbounds %class.btGeneric6DofConstraint, ptr %this1, i32 0, i32 12
  %call = call noundef ptr @_ZN9btVector3cvPfEv(ptr noundef nonnull align 4 dereferenceable(16) %m_calculatedLinearDiff)
  %3 = load i32, ptr %i, align 4
  %idxprom2 = sext i32 %3 to i64
  %arrayidx3 = getelementptr inbounds float, ptr %call, i64 %idxprom2
  %4 = load float, ptr %arrayidx3, align 4
  store float %4, ptr %currPos, align 4
  %5 = load float, ptr %currPos, align 4
  %m_equilibriumPoint = getelementptr inbounds %class.btGeneric6DofSpringConstraint, ptr %this1, i32 0, i32 2
  %6 = load i32, ptr %i, align 4
  %idxprom4 = sext i32 %6 to i64
  %arrayidx5 = getelementptr inbounds [6 x float], ptr %m_equilibriumPoint, i64 0, i64 %idxprom4
  %7 = load float, ptr %arrayidx5, align 4
  %sub = fsub float %5, %7
  store float %sub, ptr %delta, align 4
  %8 = load float, ptr %delta, align 4
  %m_springStiffness = getelementptr inbounds %class.btGeneric6DofSpringConstraint, ptr %this1, i32 0, i32 3
  %9 = load i32, ptr %i, align 4
  %idxprom6 = sext i32 %9 to i64
  %arrayidx7 = getelementptr inbounds [6 x float], ptr %m_springStiffness, i64 0, i64 %idxprom6
  %10 = load float, ptr %arrayidx7, align 4
  %mul = fmul float %8, %10
  store float %mul, ptr %force, align 4
  %11 = load ptr, ptr %info.addr, align 8
  %fps = getelementptr inbounds %"struct.btTypedConstraint::btConstraintInfo2", ptr %11, i32 0, i32 0
  %12 = load float, ptr %fps, align 8
  %m_springDamping = getelementptr inbounds %class.btGeneric6DofSpringConstraint, ptr %this1, i32 0, i32 4
  %13 = load i32, ptr %i, align 4
  %idxprom8 = sext i32 %13 to i64
  %arrayidx9 = getelementptr inbounds [6 x float], ptr %m_springDamping, i64 0, i64 %idxprom8
  %14 = load float, ptr %arrayidx9, align 4
  %mul10 = fmul float %12, %14
  %15 = load ptr, ptr %info.addr, align 8
  %m_numIterations = getelementptr inbounds %"struct.btTypedConstraint::btConstraintInfo2", ptr %15, i32 0, i32 11
  %16 = load i32, ptr %m_numIterations, align 8
  %conv = sitofp i32 %16 to float
  %div = fdiv float %mul10, %conv
  store float %div, ptr %velFactor, align 4
  %17 = load float, ptr %velFactor, align 4
  %18 = load float, ptr %force, align 4
  %mul11 = fmul float %17, %18
  %m_linearLimits = getelementptr inbounds %class.btGeneric6DofConstraint, ptr %this1, i32 0, i32 5
  %m_targetVelocity = getelementptr inbounds %class.btTranslationalLimitMotor, ptr %m_linearLimits, i32 0, i32 10
  %call12 = call noundef ptr @_ZN9btVector3cvPfEv(ptr noundef nonnull align 4 dereferenceable(16) %m_targetVelocity)
  %19 = load i32, ptr %i, align 4
  %idxprom13 = sext i32 %19 to i64
  %arrayidx14 = getelementptr inbounds float, ptr %call12, i64 %idxprom13
  store float %mul11, ptr %arrayidx14, align 4
  %20 = load float, ptr %force, align 4
  %call15 = call noundef float @_Z6btFabsf(float noundef %20)
  %m_linearLimits16 = getelementptr inbounds %class.btGeneric6DofConstraint, ptr %this1, i32 0, i32 5
  %m_maxMotorForce = getelementptr inbounds %class.btTranslationalLimitMotor, ptr %m_linearLimits16, i32 0, i32 11
  %call17 = call noundef ptr @_ZN9btVector3cvPfEv(ptr noundef nonnull align 4 dereferenceable(16) %m_maxMotorForce)
  %21 = load i32, ptr %i, align 4
  %idxprom18 = sext i32 %21 to i64
  %arrayidx19 = getelementptr inbounds float, ptr %call17, i64 %idxprom18
  store float %call15, ptr %arrayidx19, align 4
  br label %if.end

if.end:                                           ; preds = %if.then, %for.body
  br label %for.inc

for.inc:                                          ; preds = %if.end
  %22 = load i32, ptr %i, align 4
  %inc = add nsw i32 %22, 1
  store i32 %inc, ptr %i, align 4
  br label %for.cond, !llvm.loop !9

for.end:                                          ; preds = %for.cond
  store i32 0, ptr %i, align 4
  br label %for.cond20

for.cond20:                                       ; preds = %for.inc64, %for.end
  %23 = load i32, ptr %i, align 4
  %cmp21 = icmp slt i32 %23, 3
  br i1 %cmp21, label %for.body22, label %for.end66

for.body22:                                       ; preds = %for.cond20
  %m_springEnabled23 = getelementptr inbounds %class.btGeneric6DofSpringConstraint, ptr %this1, i32 0, i32 1
  %24 = load i32, ptr %i, align 4
  %add = add nsw i32 %24, 3
  %idxprom24 = sext i32 %add to i64
  %arrayidx25 = getelementptr inbounds [6 x i8], ptr %m_springEnabled23, i64 0, i64 %idxprom24
  %25 = load i8, ptr %arrayidx25, align 1
  %tobool26 = trunc i8 %25 to i1
  br i1 %tobool26, label %if.then27, label %if.end63

if.then27:                                        ; preds = %for.body22
  %m_calculatedAxisAngleDiff = getelementptr inbounds %class.btGeneric6DofConstraint, ptr %this1, i32 0, i32 10
  %call29 = call noundef ptr @_ZN9btVector3cvPfEv(ptr noundef nonnull align 4 dereferenceable(16) %m_calculatedAxisAngleDiff)
  %26 = load i32, ptr %i, align 4
  %idxprom30 = sext i32 %26 to i64
  %arrayidx31 = getelementptr inbounds float, ptr %call29, i64 %idxprom30
  %27 = load float, ptr %arrayidx31, align 4
  store float %27, ptr %currPos28, align 4
  %28 = load float, ptr %currPos28, align 4
  %m_equilibriumPoint33 = getelementptr inbounds %class.btGeneric6DofSpringConstraint, ptr %this1, i32 0, i32 2
  %29 = load i32, ptr %i, align 4
  %add34 = add nsw i32 %29, 3
  %idxprom35 = sext i32 %add34 to i64
  %arrayidx36 = getelementptr inbounds [6 x float], ptr %m_equilibriumPoint33, i64 0, i64 %idxprom35
  %30 = load float, ptr %arrayidx36, align 4
  %sub37 = fsub float %28, %30
  store float %sub37, ptr %delta32, align 4
  %31 = load float, ptr %delta32, align 4
  %fneg = fneg float %31
  %m_springStiffness39 = getelementptr inbounds %class.btGeneric6DofSpringConstraint, ptr %this1, i32 0, i32 3
  %32 = load i32, ptr %i, align 4
  %add40 = add nsw i32 %32, 3
  %idxprom41 = sext i32 %add40 to i64
  %arrayidx42 = getelementptr inbounds [6 x float], ptr %m_springStiffness39, i64 0, i64 %idxprom41
  %33 = load float, ptr %arrayidx42, align 4
  %mul43 = fmul float %fneg, %33
  store float %mul43, ptr %force38, align 4
  %34 = load ptr, ptr %info.addr, align 8
  %fps45 = getelementptr inbounds %"struct.btTypedConstraint::btConstraintInfo2", ptr %34, i32 0, i32 0
  %35 = load float, ptr %fps45, align 8
  %m_springDamping46 = getelementptr inbounds %class.btGeneric6DofSpringConstraint, ptr %this1, i32 0, i32 4
  %36 = load i32, ptr %i, align 4
  %add47 = add nsw i32 %36, 3
  %idxprom48 = sext i32 %add47 to i64
  %arrayidx49 = getelementptr inbounds [6 x float], ptr %m_springDamping46, i64 0, i64 %idxprom48
  %37 = load float, ptr %arrayidx49, align 4
  %mul50 = fmul float %35, %37
  %38 = load ptr, ptr %info.addr, align 8
  %m_numIterations51 = getelementptr inbounds %"struct.btTypedConstraint::btConstraintInfo2", ptr %38, i32 0, i32 11
  %39 = load i32, ptr %m_numIterations51, align 8
  %conv52 = sitofp i32 %39 to float
  %div53 = fdiv float %mul50, %conv52
  store float %div53, ptr %velFactor44, align 4
  %40 = load float, ptr %velFactor44, align 4
  %41 = load float, ptr %force38, align 4
  %mul54 = fmul float %40, %41
  %m_angularLimits = getelementptr inbounds %class.btGeneric6DofConstraint, ptr %this1, i32 0, i32 6
  %42 = load i32, ptr %i, align 4
  %idxprom55 = sext i32 %42 to i64
  %arrayidx56 = getelementptr inbounds [3 x %class.btRotationalLimitMotor], ptr %m_angularLimits, i64 0, i64 %idxprom55
  %m_targetVelocity57 = getelementptr inbounds %class.btRotationalLimitMotor, ptr %arrayidx56, i32 0, i32 2
  store float %mul54, ptr %m_targetVelocity57, align 4
  %43 = load float, ptr %force38, align 4
  %call58 = call noundef float @_Z6btFabsf(float noundef %43)
  %m_angularLimits59 = getelementptr inbounds %class.btGeneric6DofConstraint, ptr %this1, i32 0, i32 6
  %44 = load i32, ptr %i, align 4
  %idxprom60 = sext i32 %44 to i64
  %arrayidx61 = getelementptr inbounds [3 x %class.btRotationalLimitMotor], ptr %m_angularLimits59, i64 0, i64 %idxprom60
  %m_maxMotorForce62 = getelementptr inbounds %class.btRotationalLimitMotor, ptr %arrayidx61, i32 0, i32 3
  store float %call58, ptr %m_maxMotorForce62, align 4
  br label %if.end63

if.end63:                                         ; preds = %if.then27, %for.body22
  br label %for.inc64

for.inc64:                                        ; preds = %if.end63
  %45 = load i32, ptr %i, align 4
  %inc65 = add nsw i32 %45, 1
  store i32 %inc65, ptr %i, align 4
  br label %for.cond20, !llvm.loop !10

for.end66:                                        ; preds = %for.cond20
  ret void
}

; Function Attrs: mustprogress uwtable
define dso_local void @_ZN29btGeneric6DofSpringConstraint8getInfo2EPN17btTypedConstraint17btConstraintInfo2E(ptr noundef nonnull align 8 dereferenceable(1412) %this, ptr noundef %info) unnamed_addr #2 align 2 {
entry:
  %this.addr = alloca ptr, align 8
  %info.addr = alloca ptr, align 8
  store ptr %this, ptr %this.addr, align 8
  store ptr %info, ptr %info.addr, align 8
  %this1 = load ptr, ptr %this.addr, align 8
  %0 = load ptr, ptr %info.addr, align 8
  call void @_ZN29btGeneric6DofSpringConstraint21internalUpdateSpringsEPN17btTypedConstraint17btConstraintInfo2E(ptr noundef nonnull align 8 dereferenceable(1412) %this1, ptr noundef %0)
  %1 = load ptr, ptr %info.addr, align 8
  call void @_ZN23btGeneric6DofConstraint8getInfo2EPN17btTypedConstraint17btConstraintInfo2E(ptr noundef nonnull align 8 dereferenceable(1333) %this1, ptr noundef %1)
  ret void
}