; Function Attrs: mustprogress uwtable
define dso_local void @_ZN29btGeneric6DofSpringConstraint8getInfo2EPN17btTypedConstraint17btConstraintInfo2E(ptr noundef nonnull align 8 dereferenceable(1412) %this, ptr noundef %info) unnamed_addr #1 align 2 {
entry:
  %m_springEnabled.i = getelementptr inbounds i8, ptr %this, i64 1333
  %m_calculatedLinearDiff.i = getelementptr inbounds i8, ptr %this, i64 1280
  %m_equilibriumPoint.i = getelementptr inbounds i8, ptr %this, i64 1340
  %m_springStiffness.i = getelementptr inbounds i8, ptr %this, i64 1364
  %m_springDamping.i = getelementptr inbounds i8, ptr %this, i64 1388
  %m_numIterations.i = getelementptr inbounds i8, ptr %info, i64 80
  %m_targetVelocity.i = getelementptr inbounds i8, ptr %this, i64 816
  %m_maxMotorForce.i = getelementptr inbounds i8, ptr %this, i64 832
  br label %for.body.i

for.cond20.preheader.i:                           ; preds = %for.inc.i
  %m_calculatedAxisAngleDiff.i = getelementptr inbounds i8, ptr %this, i64 1216
  %m_angularLimits.i = getelementptr inbounds i8, ptr %this, i64 892
  br label %for.body22.i

for.body.i:                                       ; preds = %for.inc.i, %entry
  %indvars.iv.i = phi i64 [ 0, %entry ], [ %indvars.iv.next.i, %for.inc.i ]
  %arrayidx.i = getelementptr inbounds [6 x i8], ptr %m_springEnabled.i, i64 0, i64 %indvars.iv.i
  %0 = load i8, ptr %arrayidx.i, align 1
  %1 = and i8 %0, 1
  %tobool.not.i = icmp eq i8 %1, 0
  br i1 %tobool.not.i, label %for.inc.i, label %if.then.i

if.then.i:                                        ; preds = %for.body.i
  %arrayidx3.i = getelementptr inbounds float, ptr %m_calculatedLinearDiff.i, i64 %indvars.iv.i
  %2 = load float, ptr %arrayidx3.i, align 4
  %arrayidx5.i = getelementptr inbounds [6 x float], ptr %m_equilibriumPoint.i, i64 0, i64 %indvars.iv.i
  %3 = load float, ptr %arrayidx5.i, align 4
  %sub.i = fsub float %2, %3
  %arrayidx7.i = getelementptr inbounds [6 x float], ptr %m_springStiffness.i, i64 0, i64 %indvars.iv.i
  %4 = load float, ptr %arrayidx7.i, align 4
  %mul.i = fmul float %sub.i, %4
  %5 = load float, ptr %info, align 8
  %arrayidx9.i = getelementptr inbounds [6 x float], ptr %m_springDamping.i, i64 0, i64 %indvars.iv.i
  %6 = load float, ptr %arrayidx9.i, align 4
  %mul10.i = fmul float %5, %6
  %7 = load i32, ptr %m_numIterations.i, align 8
  %conv.i = sitofp i32 %7 to float
  %div.i = fdiv float %mul10.i, %conv.i
  %mul11.i = fmul float %mul.i, %div.i
  %arrayidx14.i = getelementptr inbounds float, ptr %m_targetVelocity.i, i64 %indvars.iv.i
  store float %mul11.i, ptr %arrayidx14.i, align 4
  %8 = tail call noundef float @llvm.fabs.f32(float %mul.i)
  %arrayidx19.i = getelementptr inbounds float, ptr %m_maxMotorForce.i, i64 %indvars.iv.i
  store float %8, ptr %arrayidx19.i, align 4
  br label %for.inc.i

for.inc.i:                                        ; preds = %if.then.i, %for.body.i
  %indvars.iv.next.i = add nuw nsw i64 %indvars.iv.i, 1
  %exitcond.not.i = icmp eq i64 %indvars.iv.next.i, 3
  br i1 %exitcond.not.i, label %for.cond20.preheader.i, label %for.body.i, !llvm.loop !9

for.body22.i:                                     ; preds = %for.inc64.i, %for.cond20.preheader.i
  %indvars.iv26.i = phi i64 [ 0, %for.cond20.preheader.i ], [ %indvars.iv.next27.i, %for.inc64.i ]
  %9 = add nuw nsw i64 %indvars.iv26.i, 3
  %arrayidx25.i = getelementptr inbounds [6 x i8], ptr %m_springEnabled.i, i64 0, i64 %9
  %10 = load i8, ptr %arrayidx25.i, align 1
  %11 = and i8 %10, 1
  %tobool26.not.i = icmp eq i8 %11, 0
  br i1 %tobool26.not.i, label %for.inc64.i, label %if.then27.i

if.then27.i:                                      ; preds = %for.body22.i
  %arrayidx31.i = getelementptr inbounds float, ptr %m_calculatedAxisAngleDiff.i, i64 %indvars.iv26.i
  %12 = load float, ptr %arrayidx31.i, align 4
  %arrayidx36.i = getelementptr inbounds [6 x float], ptr %m_equilibriumPoint.i, i64 0, i64 %9
  %13 = load float, ptr %arrayidx36.i, align 4
  %sub37.i = fsub float %12, %13
  %fneg.i = fneg float %sub37.i
  %arrayidx42.i = getelementptr inbounds [6 x float], ptr %m_springStiffness.i, i64 0, i64 %9
  %14 = load float, ptr %arrayidx42.i, align 4
  %mul43.i = fmul float %14, %fneg.i
  %15 = load float, ptr %info, align 8
  %arrayidx49.i = getelementptr inbounds [6 x float], ptr %m_springDamping.i, i64 0, i64 %9
  %16 = load float, ptr %arrayidx49.i, align 4
  %mul50.i = fmul float %15, %16
  %17 = load i32, ptr %m_numIterations.i, align 8
  %conv52.i = sitofp i32 %17 to float
  %div53.i = fdiv float %mul50.i, %conv52.i
  %mul54.i = fmul float %mul43.i, %div53.i
  %arrayidx56.i = getelementptr inbounds [3 x %class.btRotationalLimitMotor], ptr %m_angularLimits.i, i64 0, i64 %indvars.iv26.i
  %m_targetVelocity57.i = getelementptr inbounds i8, ptr %arrayidx56.i, i64 8
  store float %mul54.i, ptr %m_targetVelocity57.i, align 4
  %18 = tail call noundef float @llvm.fabs.f32(float %mul43.i)
  %m_maxMotorForce62.i = getelementptr inbounds i8, ptr %arrayidx56.i, i64 12
  store float %18, ptr %m_maxMotorForce62.i, align 8
  br label %for.inc64.i

for.inc64.i:                                      ; preds = %if.then27.i, %for.body22.i
  %indvars.iv.next27.i = add nuw nsw i64 %indvars.iv26.i, 1
  %exitcond30.not.i = icmp eq i64 %indvars.iv.next27.i, 3
  br i1 %exitcond30.not.i, label %_ZN29btGeneric6DofSpringConstraint21internalUpdateSpringsEPN17btTypedConstraint17btConstraintInfo2E.exit, label %for.body22.i, !llvm.loop !10

_ZN29btGeneric6DofSpringConstraint21internalUpdateSpringsEPN17btTypedConstraint17btConstraintInfo2E.exit: ; preds = %for.inc64.i
  tail call void @_ZN23btGeneric6DofConstraint8getInfo2EPN17btTypedConstraint17btConstraintInfo2E(ptr noundef nonnull align 8 dereferenceable(1333) %this, ptr noundef %info)
  ret void
}